target datalayout = "e-m:e-p270:32:32-p271:32:32-p272:64:64-i64:64-i128:128-f80:128-n8:16:32:64-S128"
target triple = "x86_64-unknown-linux-gnu"

%"class.std::__cxx11::basic_string" = type { %"struct.std::__cxx11::basic_string<char>::_Alloc_hider", i64, %union.anon }
%"struct.std::__cxx11::basic_string<char>::_Alloc_hider" = type { ptr }
%union.anon = type { i64, [8 x i8] }
%class.vector = type { ptr }
%class.vector.0 = type { ptr }
%class.vector.1 = type { ptr }

; Function Attrs: mustprogress nounwind uwtable
define linkonce_odr hidden noundef nonnull align 8 dereferenceable(32) ptr @_ZN6vectorINSt7__cxx1112basic_stringIcSt11char_traitsIcESaIcEEELb1EjEixEj(ptr noundef nonnull align 8 dereferenceable(8) %this, i32 noundef %idx) #5 comdat align 2 {
entry:
  %this.addr = alloca ptr, align 8
  %idx.addr = alloca i32, align 4
  store ptr %this, ptr %this.addr, align 8
  store i32 %idx, ptr %idx.addr, align 4
  %this1 = load ptr, ptr %this.addr, align 8
  %m_data = getelementptr inbounds %class.vector.0, ptr %this1, i32 0, i32 0
  %0 = load ptr, ptr %m_data, align 8
  %1 = load i32, ptr %idx.addr, align 4
  %idxprom = zext i32 %1 to i64
  %arrayidx = getelementptr inbounds %"class.std::__cxx11::basic_string", ptr %0, i64 %idxprom
  ret ptr %arrayidx
}

; Function Attrs: mustprogress nounwind uwtable
define linkonce_odr hidden noundef i32 @_ZNK6vectorIS_INSt7__cxx1112basic_stringIcSt11char_traitsIcESaIcEEELb1EjELb1EjE4sizeEv(ptr noundef nonnull align 8 dereferenceable(8) %this) #5 comdat align 2 {
entry:
  %retval = alloca i32, align 4
  %this.addr = alloca ptr, align 8
  store ptr %this, ptr %this.addr, align 8
  %this1 = load ptr, ptr %this.addr, align 8
  %m_data = getelementptr inbounds %class.vector, ptr %this1, i32 0, i32 0
  %0 = load ptr, ptr %m_data, align 8
  %cmp = icmp eq ptr %0, null
  br i1 %cmp, label %if.then, label %if.end

if.then:                                          ; preds = %entry
  store i32 0, ptr %retval, align 4
  br label %return

if.end:                                           ; preds = %entry
  %m_data2 = getelementptr inbounds %class.vector, ptr %this1, i32 0, i32 0
  %1 = load ptr, ptr %m_data2, align 8
  %arrayidx = getelementptr inbounds i32, ptr %1, i64 -1
  %2 = load i32, ptr %arrayidx, align 4
  store i32 %2, ptr %retval, align 4
  br label %return

return:                                           ; preds = %if.end, %if.then
  %3 = load i32, ptr %retval, align 4
  ret i32 %3
}

; Function Attrs: mustprogress uwtable
define linkonce_odr hidden noundef nonnull align 8 dereferenceable(8) ptr @_ZN6vectorIjLb1EjE9push_backEOj(ptr noundef nonnull align 8 dereferenceable(8) %this, ptr noundef nonnull align 4 dereferenceable(4) %elem) #4 comdat align 2 {
entry:
  %this.addr = alloca ptr, align 8
  %elem.addr = alloca ptr, align 8
  store ptr %this, ptr %this.addr, align 8
  store ptr %elem, ptr %elem.addr, align 8
  %this1 = load ptr, ptr %this.addr, align 8
  %m_data = getelementptr inbounds %class.vector.1, ptr %this1, i32 0, i32 0
  %0 = load ptr, ptr %m_data, align 8
  %cmp = icmp eq ptr %0, null
  br i1 %cmp, label %if.then, label %lor.lhs.false

lor.lhs.false:                                    ; preds = %entry
  %m_data2 = getelementptr inbounds %class.vector.1, ptr %this1, i32 0, i32 0
  %1 = load ptr, ptr %m_data2, align 8
  %arrayidx = getelementptr inbounds i32, ptr %1, i64 -1
  %2 = load i32, ptr %arrayidx, align 4
  %m_data3 = getelementptr inbounds %class.vector.1, ptr %this1, i32 0, i32 0
  %3 = load ptr, ptr %m_data3, align 8
  %arrayidx4 = getelementptr inbounds i32, ptr %3, i64 -2
  %4 = load i32, ptr %arrayidx4, align 4
  %cmp5 = icmp eq i32 %2, %4
  br i1 %cmp5, label %if.then, label %if.end

if.then:                                          ; preds = %lor.lhs.false, %entry
  call void @_ZN6vectorIjLb1EjE13expand_vectorEv(ptr noundef nonnull align 8 dereferenceable(8) %this1)
  br label %if.end

if.end:                                           ; preds = %if.then, %lor.lhs.false
  %m_data6 = getelementptr inbounds %class.vector.1, ptr %this1, i32 0, i32 0
  %5 = load ptr, ptr %m_data6, align 8
  %m_data7 = getelementptr inbounds %class.vector.1, ptr %this1, i32 0, i32 0
  %6 = load ptr, ptr %m_data7, align 8
  %arrayidx8 = getelementptr inbounds i32, ptr %6, i64 -1
  %7 = load i32, ptr %arrayidx8, align 4
  %idx.ext = zext i32 %7 to i64
  %add.ptr = getelementptr inbounds i32, ptr %5, i64 %idx.ext
  %8 = load ptr, ptr %elem.addr, align 8
  %9 = load i32, ptr %8, align 4
  store i32 %9, ptr %add.ptr, align 4
  %m_data9 = getelementptr inbounds %class.vector.1, ptr %this1, i32 0, i32 0
  %10 = load ptr, ptr %m_data9, align 8
  %arrayidx10 = getelementptr inbounds i32, ptr %10, i64 -1
  %11 = load i32, ptr %arrayidx10, align 4
  %inc = add i32 %11, 1
  store i32 %inc, ptr %arrayidx10, align 4
  ret ptr %this1
}

; Function Attrs: mustprogress uwtable
define hidden noundef i32 @_ZN2lp19get_width_of_columnEjR6vectorIS0_INSt7__cxx1112basic_stringIcSt11char_traitsIcESaIcEEELb1EjELb1EjE(i32 noundef %j, ptr noundef nonnull align 8 dereferenceable(8) %A) #4 {
entry:
  %j.addr = alloca i32, align 4
  %A.addr = alloca ptr, align 8
  %r = alloca i32, align 4
  %i = alloca i32, align 4
  %t = alloca ptr, align 8
  %str = alloca %"class.std::__cxx11::basic_string", align 8
  %s = alloca i32, align 4
  store i32 %j, ptr %j.addr, align 4
  store ptr %A, ptr %A.addr, align 8
  store i32 0, ptr %r, align 4
  store i32 0, ptr %i, align 4
  br label %for.cond

for.cond:                                         ; preds = %for.inc, %entry
  %0 = load i32, ptr %i, align 4
  %1 = load ptr, ptr %A.addr, align 8
  %call = call noundef i32 @_ZNK6vectorIS_INSt7__cxx1112basic_stringIcSt11char_traitsIcESaIcEEELb1EjELb1EjE4sizeEv(ptr noundef nonnull align 8 dereferenceable(8) %1)
  %cmp = icmp ult i32 %0, %call
  br i1 %cmp, label %for.body, label %for.end

for.body:                                         ; preds = %for.cond
  %2 = load ptr, ptr %A.addr, align 8
  %3 = load i32, ptr %i, align 4
  %call1 = call noundef nonnull align 8 dereferenceable(8) ptr @_ZN6vectorIS_INSt7__cxx1112basic_stringIcSt11char_traitsIcESaIcEEELb1EjELb1EjEixEj(ptr noundef nonnull align 8 dereferenceable(8) %2, i32 noundef %3)
  store ptr %call1, ptr %t, align 8
  %4 = load ptr, ptr %t, align 8
  %5 = load i32, ptr %j.addr, align 4
  %call2 = call noundef nonnull align 8 dereferenceable(32) ptr @_ZN6vectorINSt7__cxx1112basic_stringIcSt11char_traitsIcESaIcEEELb1EjEixEj(ptr noundef nonnull align 8 dereferenceable(8) %4, i32 noundef %5)
  call void @_ZNSt7__cxx1112basic_stringIcSt11char_traitsIcESaIcEEC1ERKS4_(ptr noundef nonnull align 8 dereferenceable(32) %str, ptr noundef nonnull align 8 dereferenceable(32) %call2)
  %call3 = call noundef i64 @_ZNKSt7__cxx1112basic_stringIcSt11char_traitsIcESaIcEE4sizeEv(ptr noundef nonnull align 8 dereferenceable(32) %str) #3
  %conv = trunc i64 %call3 to i32
  store i32 %conv, ptr %s, align 4
  %6 = load i32, ptr %r, align 4
  %7 = load i32, ptr %s, align 4
  %cmp4 = icmp ult i32 %6, %7
  br i1 %cmp4, label %if.then, label %if.end

if.then:                                          ; preds = %for.body
  %8 = load i32, ptr %s, align 4
  store i32 %8, ptr %r, align 4
  br label %if.end

if.end:                                           ; preds = %if.then, %for.body
  call void @_ZNSt7__cxx1112basic_stringIcSt11char_traitsIcESaIcEED1Ev(ptr noundef nonnull align 8 dereferenceable(32) %str) #3
  br label %for.inc

for.inc:                                          ; preds = %if.end
  %9 = load i32, ptr %i, align 4
  %inc = add i32 %9, 1
  store i32 %inc, ptr %i, align 4
  br label %for.cond, !llvm.loop !4

for.end:                                          ; preds = %for.cond
  %10 = load i32, ptr %r, align 4
  ret i32 %10
}

; Function Attrs: mustprogress nounwind uwtable
define linkonce_odr hidden noundef i32 @_ZNK6vectorINSt7__cxx1112basic_stringIcSt11char_traitsIcESaIcEEELb1EjE4sizeEv(ptr noundef nonnull align 8 dereferenceable(8) %this) #5 comdat align 2 {
entry:
  %retval = alloca i32, align 4
  %this.addr = alloca ptr, align 8
  store ptr %this, ptr %this.addr, align 8
  %this1 = load ptr, ptr %this.addr, align 8
  %m_data = getelementptr inbounds %class.vector.0, ptr %this1, i32 0, i32 0
  %0 = load ptr, ptr %m_data, align 8
  %cmp = icmp eq ptr %0, null
  br i1 %cmp, label %if.then, label %if.end

if.then:                                          ; preds = %entry
  store i32 0, ptr %retval, align 4
  br label %return

if.end:                                           ; preds = %entry
  %m_data2 = getelementptr inbounds %class.vector.0, ptr %this1, i32 0, i32 0
  %1 = load ptr, ptr %m_data2, align 8
  %arrayidx = getelementptr inbounds i32, ptr %1, i64 -1
  %2 = load i32, ptr %arrayidx, align 4
  store i32 %2, ptr %retval, align 4
  br label %return

return:                                           ; preds = %if.end, %if.then
  %3 = load i32, ptr %retval, align 4
  ret i32 %3
}

; Function Attrs: mustprogress nounwind uwtable
define linkonce_odr hidden noundef nonnull align 8 dereferenceable(8) ptr @_ZN6vectorIS_INSt7__cxx1112basic_stringIcSt11char_traitsIcESaIcEEELb1EjELb1EjEixEj(ptr noundef nonnull align 8 dereferenceable(8) %this, i32 noundef %idx) #5 comdat align 2 {
entry:
  %this.addr = alloca ptr, align 8
  %idx.addr = alloca i32, align 4
  store ptr %this, ptr %this.addr, align 8
  store i32 %idx, ptr %idx.addr, align 4
  %this1 = load ptr, ptr %this.addr, align 8
  %m_data = getelementptr inbounds %class.vector, ptr %this1, i32 0, i32 0
  %0 = load ptr, ptr %m_data, align 8
  %1 = load i32, ptr %idx.addr, align 4
  %idxprom = zext i32 %1 to i64
  %arrayidx = getelementptr inbounds %class.vector.0, ptr %0, i64 %idxprom
  ret ptr %arrayidx
}

; Function Attrs: mustprogress nounwind uwtable
define linkonce_odr hidden noundef zeroext i1 @_ZNK6vectorIS_INSt7__cxx1112basic_stringIcSt11char_traitsIcESaIcEEELb1EjELb1EjE5emptyEv(ptr noundef nonnull align 8 dereferenceable(8) %this) #5 comdat align 2 {
entry:
  %this.addr = alloca ptr, align 8
  store ptr %this, ptr %this.addr, align 8
  %this1 = load ptr, ptr %this.addr, align 8
  %m_data = getelementptr inbounds %class.vector, ptr %this1, i32 0, i32 0
  %0 = load ptr, ptr %m_data, align 8
  %cmp = icmp eq ptr %0, null
  br i1 %cmp, label %lor.end, label %lor.rhs

lor.rhs:                                          ; preds = %entry
  %m_data2 = getelementptr inbounds %class.vector, ptr %this1, i32 0, i32 0
  %1 = load ptr, ptr %m_data2, align 8
  %arrayidx = getelementptr inbounds i32, ptr %1, i64 -1
  %2 = load i32, ptr %arrayidx, align 4
  %cmp3 = icmp eq i32 %2, 0
  br label %lor.end

lor.end:                                          ; preds = %lor.rhs, %entry
  %3 = phi i1 [ true, %entry ], [ %cmp3, %lor.rhs ]
  ret i1 %3
}

; Function Attrs: mustprogress nounwind uwtable
define linkonce_odr hidden void @_ZN6vectorIjLb1EjEC2Ev(ptr noundef nonnull align 8 dereferenceable(8) %this) unnamed_addr #5 comdat align 2 {
entry:
  %this.addr = alloca ptr, align 8
  store ptr %this, ptr %this.addr, align 8
  %this1 = load ptr, ptr %this.addr, align 8
  %m_data = getelementptr inbounds %class.vector.1, ptr %this1, i32 0, i32 0
  store ptr null, ptr %m_data, align 8
  ret void
}

; Function Attrs: mustprogress uwtable
define hidden void @_ZN2lp19print_string_matrixER6vectorIS0_INSt7__cxx1112basic_stringIcSt11char_traitsIcESaIcEEELb1EjELb1EjERSoj(ptr noundef nonnull align 8 dereferenceable(8) %A, ptr noundef nonnull align 8 dereferenceable(8) %out, i32 noundef %blanks_in_front) #4 personality ptr @__gxx_personality_v0 {
entry:
  %A.addr = alloca ptr, align 8
  %out.addr = alloca ptr, align 8
  %blanks_in_front.addr = alloca i32, align 4
  %widths = alloca %class.vector.1, align 8
  %exn.slot = alloca ptr, align 8
  %ehselector.slot = alloca i32, align 4
  %j = alloca i32, align 4
  %ref.tmp = alloca i32, align 4
  store ptr %A, ptr %A.addr, align 8
  store ptr %out, ptr %out.addr, align 8
  store i32 %blanks_in_front, ptr %blanks_in_front.addr, align 4
  call void @_ZN6vectorIjLb1EjEC2Ev(ptr noundef nonnull align 8 dereferenceable(8) %widths) #3
  %0 = load ptr, ptr %A.addr, align 8
  %call = invoke noundef zeroext i1 @_ZNK6vectorIS_INSt7__cxx1112basic_stringIcSt11char_traitsIcESaIcEEELb1EjELb1EjE5emptyEv(ptr noundef nonnull align 8 dereferenceable(8) %0)
          to label %invoke.cont unwind label %lpad

invoke.cont:                                      ; preds = %entry
  br i1 %call, label %if.end, label %if.then

if.then:                                          ; preds = %invoke.cont
  store i32 0, ptr %j, align 4
  br label %for.cond

for.cond:                                         ; preds = %for.inc, %if.then
  %1 = load i32, ptr %j, align 4
  %2 = load ptr, ptr %A.addr, align 8
  %call2 = invoke noundef nonnull align 8 dereferenceable(8) ptr @_ZN6vectorIS_INSt7__cxx1112basic_stringIcSt11char_traitsIcESaIcEEELb1EjELb1EjEixEj(ptr noundef nonnull align 8 dereferenceable(8) %2, i32 noundef 0)
          to label %invoke.cont1 unwind label %lpad

invoke.cont1:                                     ; preds = %for.cond
  %call4 = invoke noundef i32 @_ZNK6vectorINSt7__cxx1112basic_stringIcSt11char_traitsIcESaIcEEELb1EjE4sizeEv(ptr noundef nonnull align 8 dereferenceable(8) %call2)
          to label %invoke.cont3 unwind label %lpad

invoke.cont3:                                     ; preds = %invoke.cont1
  %cmp = icmp ult i32 %1, %call4
  br i1 %cmp, label %for.body, label %for.end

for.body:                                         ; preds = %invoke.cont3
  %3 = load i32, ptr %j, align 4
  %4 = load ptr, ptr %A.addr, align 8
  %call6 = invoke noundef i32 @_ZN2lp19get_width_of_columnEjR6vectorIS0_INSt7__cxx1112basic_stringIcSt11char_traitsIcESaIcEEELb1EjELb1EjE(i32 noundef %3, ptr noundef nonnull align 8 dereferenceable(8) %4)
          to label %invoke.cont5 unwind label %lpad

invoke.cont5:                                     ; preds = %for.body
  store i32 %call6, ptr %ref.tmp, align 4
  %call8 = invoke noundef nonnull align 8 dereferenceable(8) ptr @_ZN6vectorIjLb1EjE9push_backEOj(ptr noundef nonnull align 8 dereferenceable(8) %widths, ptr noundef nonnull align 4 dereferenceable(4) %ref.tmp)
          to label %invoke.cont7 unwind label %lpad

invoke.cont7:                                     ; preds = %invoke.cont5
  br label %for.inc

for.inc:                                          ; preds = %invoke.cont7
  %5 = load i32, ptr %j, align 4
  %inc = add i32 %5, 1
  store i32 %inc, ptr %j, align 4
  br label %for.cond, !llvm.loop !9

lpad:                                             ; preds = %invoke.cont9, %if.end, %invoke.cont5, %for.body, %invoke.cont1, %for.cond, %entry
  %6 = landingpad { ptr, i32 }
          cleanup
  %7 = extractvalue { ptr, i32 } %6, 0
  store ptr %7, ptr %exn.slot, align 8
  %8 = extractvalue { ptr, i32 } %6, 1
  store i32 %8, ptr %ehselector.slot, align 4
  call void @_ZN6vectorIjLb1EjED2Ev(ptr noundef nonnull align 8 dereferenceable(8) %widths) #3
  br label %eh.resume

for.end:                                          ; preds = %invoke.cont3
  br label %if.end

if.end:                                           ; preds = %for.end, %invoke.cont
  %9 = load ptr, ptr %A.addr, align 8
  %10 = load ptr, ptr %out.addr, align 8
  %11 = load i32, ptr %blanks_in_front.addr, align 4
  invoke void @_ZN2lp24print_matrix_with_widthsER6vectorIS0_INSt7__cxx1112basic_stringIcSt11char_traitsIcESaIcEEELb1EjELb1EjERS0_IjLb1EjERSoj(ptr noundef nonnull align 8 dereferenceable(8) %9, ptr noundef nonnull align 8 dereferenceable(8) %widths, ptr noundef nonnull align 8 dereferenceable(8) %10, i32 noundef %11)
          to label %invoke.cont9 unwind label %lpad

invoke.cont9:                                     ; preds = %if.end
  %12 = load ptr, ptr %out.addr, align 8
  %call11 = invoke noundef nonnull align 8 dereferenceable(8) ptr @_ZNSolsEPFRSoS_E(ptr noundef nonnull align 8 dereferenceable(8) %12, ptr noundef @_ZSt4endlIcSt11char_traitsIcEERSt13basic_ostreamIT_T0_ES6_)
          to label %invoke.cont10 unwind label %lpad

invoke.cont10:                                    ; preds = %invoke.cont9
  call void @_ZN6vectorIjLb1EjED2Ev(ptr noundef nonnull align 8 dereferenceable(8) %widths) #3
  ret void

eh.resume:                                        ; preds = %lpad
  %exn = load ptr, ptr %exn.slot, align 8
  %sel = load i32, ptr %ehselector.slot, align 4
  %lpad.val = insertvalue { ptr, i32 } poison, ptr %exn, 0
  %lpad.val12 = insertvalue { ptr, i32 } %lpad.val, i32 %sel, 1
  resume { ptr, i32 } %lpad.val12
}