; Function Attrs: mustprogress uwtable
define hidden void @_ZN2lp19print_string_matrixER6vectorIS0_INSt7__cxx1112basic_stringIcSt11char_traitsIcESaIcEEELb1EjELb1EjERSoj(ptr nocapture noundef nonnull readonly align 8 dereferenceable(8) %A, ptr noundef nonnull align 8 dereferenceable(8) %out, i32 noundef %blanks_in_front) local_unnamed_addr #3 personality ptr @__gxx_personality_v0 {
entry:
  %str.i = alloca %"class.std::__cxx11::basic_string", align 8
  %widths = alloca %class.vector.1, align 8
  store ptr null, ptr %widths, align 8
  %0 = load ptr, ptr %A, align 8
  %cmp.i = icmp eq ptr %0, null
  br i1 %cmp.i, label %if.end, label %_ZNK6vectorIS_INSt7__cxx1112basic_stringIcSt11char_traitsIcESaIcEEELb1EjELb1EjE5emptyEv.exit

_ZNK6vectorIS_INSt7__cxx1112basic_stringIcSt11char_traitsIcESaIcEEELb1EjELb1EjE5emptyEv.exit: ; preds = %entry
  %arrayidx.i = getelementptr inbounds i8, ptr %0, i64 -4
  %1 = load i32, ptr %arrayidx.i, align 4
  %cmp3.i = icmp eq i32 %1, 0
  br i1 %cmp3.i, label %if.end, label %for.cond

for.cond:                                         ; preds = %_ZNK6vectorIS_INSt7__cxx1112basic_stringIcSt11char_traitsIcESaIcEEELb1EjELb1EjE5emptyEv.exit, %for.inc
  %2 = phi ptr [ %.pre, %for.inc ], [ %0, %_ZNK6vectorIS_INSt7__cxx1112basic_stringIcSt11char_traitsIcESaIcEEELb1EjELb1EjE5emptyEv.exit ]
  %indvars.iv = phi i64 [ %indvars.iv.next, %for.inc ], [ 0, %_ZNK6vectorIS_INSt7__cxx1112basic_stringIcSt11char_traitsIcESaIcEEELb1EjELb1EjE5emptyEv.exit ]
  %3 = load ptr, ptr %2, align 8
  %cmp.i7 = icmp eq ptr %3, null
  br i1 %cmp.i7, label %_ZNK6vectorINSt7__cxx1112basic_stringIcSt11char_traitsIcESaIcEEELb1EjE4sizeEv.exit, label %if.end.i

if.end.i:                                         ; preds = %for.cond
  %arrayidx.i8 = getelementptr inbounds i8, ptr %3, i64 -4
  %4 = load i32, ptr %arrayidx.i8, align 4
  br label %_ZNK6vectorINSt7__cxx1112basic_stringIcSt11char_traitsIcESaIcEEELb1EjE4sizeEv.exit

_ZNK6vectorINSt7__cxx1112basic_stringIcSt11char_traitsIcESaIcEEELb1EjE4sizeEv.exit: ; preds = %for.cond, %if.end.i
  %retval.0.i = phi i32 [ %4, %if.end.i ], [ 0, %for.cond ]
  %5 = zext i32 %retval.0.i to i64
  %cmp = icmp ult i64 %indvars.iv, %5
  br i1 %cmp, label %for.body, label %if.end

for.body:                                         ; preds = %_ZNK6vectorINSt7__cxx1112basic_stringIcSt11char_traitsIcESaIcEEELb1EjE4sizeEv.exit
  call void @llvm.lifetime.start.p0(i64 32, ptr nonnull %str.i)
  br label %for.cond.i

for.cond.i:                                       ; preds = %.noexc, %for.body
  %6 = phi ptr [ %.pre22, %.noexc ], [ %2, %for.body ]
  %indvars.iv.i = phi i64 [ %indvars.iv.next.i, %.noexc ], [ 0, %for.body ]
  %r.0.i = phi i32 [ %spec.select.i, %.noexc ], [ 0, %for.body ]
  %cmp.i.i = icmp eq ptr %6, null
  br i1 %cmp.i.i, label %_ZNK6vectorIS_INSt7__cxx1112basic_stringIcSt11char_traitsIcESaIcEEELb1EjELb1EjE4sizeEv.exit.i, label %if.end.i.i

if.end.i.i:                                       ; preds = %for.cond.i
  %arrayidx.i.i = getelementptr inbounds i8, ptr %6, i64 -4
  %7 = load i32, ptr %arrayidx.i.i, align 4
  br label %_ZNK6vectorIS_INSt7__cxx1112basic_stringIcSt11char_traitsIcESaIcEEELb1EjELb1EjE4sizeEv.exit.i

_ZNK6vectorIS_INSt7__cxx1112basic_stringIcSt11char_traitsIcESaIcEEELb1EjELb1EjE4sizeEv.exit.i: ; preds = %if.end.i.i, %for.cond.i
  %retval.0.i.i = phi i32 [ %7, %if.end.i.i ], [ 0, %for.cond.i ]
  %8 = zext i32 %retval.0.i.i to i64
  %cmp.i9 = icmp ult i64 %indvars.iv.i, %8
  br i1 %cmp.i9, label %for.body.i, label %invoke.cont5

for.body.i:                                       ; preds = %_ZNK6vectorIS_INSt7__cxx1112basic_stringIcSt11char_traitsIcESaIcEEELb1EjELb1EjE4sizeEv.exit.i
  %arrayidx.i6.i = getelementptr inbounds %class.vector.0, ptr %6, i64 %indvars.iv.i
  %9 = load ptr, ptr %arrayidx.i6.i, align 8
  %arrayidx.i8.i = getelementptr inbounds %"class.std::__cxx11::basic_string", ptr %9, i64 %indvars.iv
  invoke void @_ZNSt7__cxx1112basic_stringIcSt11char_traitsIcESaIcEEC1ERKS4_(ptr noundef nonnull align 8 dereferenceable(32) %str.i, ptr noundef nonnull align 8 dereferenceable(32) %arrayidx.i8.i)
          to label %.noexc unwind label %lpad.loopexit

.noexc:                                           ; preds = %for.body.i
  %call3.i = call noundef i64 @_ZNKSt7__cxx1112basic_stringIcSt11char_traitsIcESaIcEE4sizeEv(ptr noundef nonnull align 8 dereferenceable(32) %str.i) #12
  %conv.i = trunc i64 %call3.i to i32
  %spec.select.i = call i32 @llvm.umax.i32(i32 %r.0.i, i32 %conv.i)
  call void @_ZNSt7__cxx1112basic_stringIcSt11char_traitsIcESaIcEED1Ev(ptr noundef nonnull align 8 dereferenceable(32) %str.i) #12
  %indvars.iv.next.i = add nuw nsw i64 %indvars.iv.i, 1
  %.pre22 = load ptr, ptr %A, align 8
  br label %for.cond.i, !llvm.loop !4

invoke.cont5:                                     ; preds = %_ZNK6vectorIS_INSt7__cxx1112basic_stringIcSt11char_traitsIcESaIcEEELb1EjELb1EjE4sizeEv.exit.i
  call void @llvm.lifetime.end.p0(i64 32, ptr nonnull %str.i)
  %10 = load ptr, ptr %widths, align 8
  %cmp.i10 = icmp eq ptr %10, null
  br i1 %cmp.i10, label %if.then.i, label %lor.lhs.false.i

lor.lhs.false.i:                                  ; preds = %invoke.cont5
  %arrayidx.i11 = getelementptr inbounds i8, ptr %10, i64 -4
  %11 = load i32, ptr %arrayidx.i11, align 4
  %arrayidx4.i = getelementptr inbounds i8, ptr %10, i64 -8
  %12 = load i32, ptr %arrayidx4.i, align 4
  %cmp5.i = icmp eq i32 %11, %12
  br i1 %cmp5.i, label %if.then.i, label %for.inc

if.then.i:                                        ; preds = %lor.lhs.false.i, %invoke.cont5
  invoke void @_ZN6vectorIjLb1EjE13expand_vectorEv(ptr noundef nonnull align 8 dereferenceable(8) %widths)
          to label %.noexc13 unwind label %lpad.loopexit.split-lp.loopexit

.noexc13:                                         ; preds = %if.then.i
  %.pre.i = load ptr, ptr %widths, align 8
  %arrayidx8.phi.trans.insert.i = getelementptr inbounds i8, ptr %.pre.i, i64 -4
  %.pre1.i = load i32, ptr %arrayidx8.phi.trans.insert.i, align 4
  br label %for.inc

for.inc:                                          ; preds = %.noexc13, %lor.lhs.false.i
  %13 = phi i32 [ %.pre1.i, %.noexc13 ], [ %11, %lor.lhs.false.i ]
  %14 = phi ptr [ %.pre.i, %.noexc13 ], [ %10, %lor.lhs.false.i ]
  %idx.ext.i = zext i32 %13 to i64
  %add.ptr.i = getelementptr inbounds i32, ptr %14, i64 %idx.ext.i
  store i32 %r.0.i, ptr %add.ptr.i, align 4
  %15 = load ptr, ptr %widths, align 8
  %arrayidx10.i = getelementptr inbounds i8, ptr %15, i64 -4
  %16 = load i32, ptr %arrayidx10.i, align 4
  %inc.i = add i32 %16, 1
  store i32 %inc.i, ptr %arrayidx10.i, align 4
  %indvars.iv.next = add nuw nsw i64 %indvars.iv, 1
  %.pre = load ptr, ptr %A, align 8
  br label %for.cond, !llvm.loop !9

lpad.loopexit:                                    ; preds = %for.body.i
  %lpad.loopexit14 = landingpad { ptr, i32 }
          cleanup
  br label %lpad

lpad.loopexit.split-lp.loopexit:                  ; preds = %if.then.i
  %lpad.loopexit16 = landingpad { ptr, i32 }
          cleanup
  br label %lpad

lpad.loopexit.split-lp.loopexit.split-lp:         ; preds = %invoke.cont9, %if.end
  %lpad.loopexit.split-lp17 = landingpad { ptr, i32 }
          cleanup
  br label %lpad

lpad:                                             ; preds = %lpad.loopexit.split-lp.loopexit, %lpad.loopexit.split-lp.loopexit.split-lp, %lpad.loopexit
  %lpad.phi = phi { ptr, i32 } [ %lpad.loopexit14, %lpad.loopexit ], [ %lpad.loopexit16, %lpad.loopexit.split-lp.loopexit ], [ %lpad.loopexit.split-lp17, %lpad.loopexit.split-lp.loopexit.split-lp ]
  call void @_ZN6vectorIjLb1EjED2Ev(ptr noundef nonnull align 8 dereferenceable(8) %widths) #12
  resume { ptr, i32 } %lpad.phi

if.end:                                           ; preds = %_ZNK6vectorINSt7__cxx1112basic_stringIcSt11char_traitsIcESaIcEEELb1EjE4sizeEv.exit, %entry, %_ZNK6vectorIS_INSt7__cxx1112basic_stringIcSt11char_traitsIcESaIcEEELb1EjELb1EjE5emptyEv.exit
  invoke void @_ZN2lp24print_matrix_with_widthsER6vectorIS0_INSt7__cxx1112basic_stringIcSt11char_traitsIcESaIcEEELb1EjELb1EjERS0_IjLb1EjERSoj(ptr noundef nonnull align 8 dereferenceable(8) %A, ptr noundef nonnull align 8 dereferenceable(8) %widths, ptr noundef nonnull align 8 dereferenceable(8) %out, i32 noundef %blanks_in_front)
          to label %invoke.cont9 unwind label %lpad.loopexit.split-lp.loopexit.split-lp

invoke.cont9:                                     ; preds = %if.end
  %call11 = invoke noundef nonnull align 8 dereferenceable(8) ptr @_ZNSolsEPFRSoS_E(ptr noundef nonnull align 8 dereferenceable(8) %out, ptr noundef nonnull @_ZSt4endlIcSt11char_traitsIcEERSt13basic_ostreamIT_T0_ES6_)
          to label %invoke.cont10 unwind label %lpad.loopexit.split-lp.loopexit.split-lp

invoke.cont10:                                    ; preds = %invoke.cont9
  %17 = load ptr, ptr %widths, align 8
  %tobool.not.i.i = icmp eq ptr %17, null
  br i1 %tobool.not.i.i, label %_ZN6vectorIjLb1EjED2Ev.exit, label %if.then.i.i

if.then.i.i:                                      ; preds = %invoke.cont10
  %add.ptr.i.i.i = getelementptr inbounds i8, ptr %17, i64 -8
  invoke void @_ZN6memory10deallocateEPv(ptr noundef nonnull %add.ptr.i.i.i)
          to label %_ZN6vectorIjLb1EjED2Ev.exit unwind label %terminate.lpad.i

terminate.lpad.i:                                 ; preds = %if.then.i.i
  %18 = landingpad { ptr, i32 }
          catch ptr null
  %19 = extractvalue { ptr, i32 } %18, 0
  call void @__clang_call_terminate(ptr %19) #13
  unreachable

_ZN6vectorIjLb1EjED2Ev.exit:                      ; preds = %invoke.cont10, %if.then.i.i
  ret void
}